target datalayout = "e-m:e-p270:32:32-p271:32:32-p272:64:64-i64:64-i128:128-f80:128-n8:16:32:64-S128"
target triple = "x86_64-pc-linux-gnu"

%class.Type = type <{ ptr, ptr, i32, [4 x i8] }>
%class.Type.base = type <{ ptr, ptr, i32 }>
%class.TypeVect = type <{ %class.Type.base, [4 x i8], ptr, i32, [4 x i8] }>

@g_assert_poison = external global ptr, align 8
@.str.42 = private unnamed_addr constant [32 x i8] c"src/hotspot/share/opto/type.cpp\00", align 1

; Function Attrs: mustprogress nounwind uwtable
define linkonce_odr hidden noundef ptr @_ZNK4Type7is_vectEv(ptr noundef nonnull align 8 dereferenceable(20) %0) #1 comdat align 2 {
  %2 = alloca ptr, align 8
  store ptr %0, ptr %2, align 8
  %3 = load ptr, ptr %2, align 8
  ret ptr %3
}

; Function Attrs: mustprogress nounwind uwtable
define linkonce_odr hidden noundef ptr @_ZNK4Type11is_vectmaskEv(ptr noundef nonnull align 8 dereferenceable(20) %0) #1 comdat align 2 {
  %2 = alloca ptr, align 8
  store ptr %0, ptr %2, align 8
  %3 = load ptr, ptr %2, align 8
  ret ptr %3
}

; Function Attrs: mustprogress nounwind uwtable
define hidden void @_ZNK4Type6typerrEPKS_(ptr noundef nonnull align 8 dereferenceable(20) %0, ptr noundef %1) #1 align 2 {
  %3 = alloca ptr, align 8
  %4 = alloca ptr, align 8
  store ptr %0, ptr %3, align 8
  store ptr %1, ptr %4, align 8
  br label %5

5:                                                ; preds = %2
  %6 = load ptr, ptr @g_assert_poison, align 8
  store i8 88, ptr %6, align 1
  call void @_Z28report_should_not_reach_herePKci(ptr noundef @.str.42, i32 noundef 1290) #7
  unreachable

7:                                                ; No predecessors!
  ret void
}

; Function Attrs: mustprogress nounwind uwtable
define linkonce_odr hidden noundef i32 @_ZNK4Type4baseEv(ptr noundef nonnull align 8 dereferenceable(20) %0) #1 comdat align 2 {
  %2 = alloca ptr, align 8
  store ptr %0, ptr %2, align 8
  %3 = load ptr, ptr %2, align 8
  %4 = getelementptr inbounds %class.Type, ptr %3, i32 0, i32 2
  %5 = load i32, ptr %4, align 8
  ret i32 %5
}

; Function Attrs: mustprogress nounwind uwtable
define hidden noundef ptr @_ZNK8TypeVect5xmeetEPK4Type(ptr noundef nonnull align 8 dereferenceable(36) %0, ptr noundef %1) unnamed_addr #1 align 2 {
  %3 = alloca ptr, align 8
  %4 = alloca ptr, align 8
  %5 = alloca ptr, align 8
  %6 = alloca ptr, align 8
  %7 = alloca ptr, align 8
  store ptr %0, ptr %4, align 8
  store ptr %1, ptr %5, align 8
  %8 = load ptr, ptr %4, align 8
  %9 = load ptr, ptr %5, align 8
  %10 = icmp eq ptr %8, %9
  br i1 %10, label %11, label %12

11:                                               ; preds = %2
  store ptr %8, ptr %3, align 8
  br label %51

12:                                               ; preds = %2
  %13 = load ptr, ptr %5, align 8
  %14 = call noundef i32 @_ZNK4Type4baseEv(ptr noundef nonnull align 8 dereferenceable(20) %13)
  switch i32 %14, label %17 [
    i32 37, label %15
    i32 11, label %19
    i32 12, label %34
    i32 13, label %34
    i32 14, label %34
    i32 15, label %34
    i32 16, label %34
    i32 17, label %34
    i32 2, label %49
  ]

15:                                               ; preds = %12
  %16 = load ptr, ptr %5, align 8
  store ptr %16, ptr %3, align 8
  br label %51

17:                                               ; preds = %12
  %18 = load ptr, ptr %5, align 8
  call void @_ZNK4Type6typerrEPKS_(ptr noundef nonnull align 8 dereferenceable(20) %8, ptr noundef %18)
  br label %19

19:                                               ; preds = %17, %12
  %20 = load ptr, ptr %5, align 8
  %21 = call noundef ptr @_ZNK4Type11is_vectmaskEv(ptr noundef nonnull align 8 dereferenceable(20) %20)
  store ptr %21, ptr %6, align 8
  %22 = getelementptr inbounds %class.TypeVect, ptr %8, i32 0, i32 2
  %23 = load ptr, ptr %22, align 8
  %24 = load ptr, ptr %6, align 8
  %25 = getelementptr inbounds %class.TypeVect, ptr %24, i32 0, i32 2
  %26 = load ptr, ptr %25, align 8
  %27 = load ptr, ptr %23, align 8
  %28 = getelementptr inbounds ptr, ptr %27, i64 4
  %29 = load ptr, ptr %28, align 8
  %30 = call noundef ptr %29(ptr noundef nonnull align 8 dereferenceable(20) %23, ptr noundef %26)
  %31 = getelementptr inbounds %class.TypeVect, ptr %8, i32 0, i32 3
  %32 = load i32, ptr %31, align 8
  %33 = call noundef ptr @_ZN8TypeVect8makemaskEPK4Typej(ptr noundef %30, i32 noundef %32)
  store ptr %33, ptr %3, align 8
  br label %51

34:                                               ; preds = %12, %12, %12, %12, %12, %12
  %35 = load ptr, ptr %5, align 8
  %36 = call noundef ptr @_ZNK4Type7is_vectEv(ptr noundef nonnull align 8 dereferenceable(20) %35)
  store ptr %36, ptr %7, align 8
  %37 = getelementptr inbounds %class.TypeVect, ptr %8, i32 0, i32 2
  %38 = load ptr, ptr %37, align 8
  %39 = load ptr, ptr %7, align 8
  %40 = getelementptr inbounds %class.TypeVect, ptr %39, i32 0, i32 2
  %41 = load ptr, ptr %40, align 8
  %42 = load ptr, ptr %38, align 8
  %43 = getelementptr inbounds ptr, ptr %42, i64 4
  %44 = load ptr, ptr %43, align 8
  %45 = call noundef ptr %44(ptr noundef nonnull align 8 dereferenceable(20) %38, ptr noundef %41)
  %46 = getelementptr inbounds %class.TypeVect, ptr %8, i32 0, i32 3
  %47 = load i32, ptr %46, align 8
  %48 = call noundef ptr @_ZN8TypeVect4makeEPK4Typejb(ptr noundef %45, i32 noundef %47, i1 noundef zeroext false)
  store ptr %48, ptr %3, align 8
  br label %51

49:                                               ; preds = %12
  br label %50

50:                                               ; preds = %49
  store ptr %8, ptr %3, align 8
  br label %51

51:                                               ; preds = %50, %34, %19, %15, %11
  %52 = load ptr, ptr %3, align 8
  ret ptr %52
}