; Function Attrs: mustprogress nounwind uwtable
define hidden noundef ptr @_ZNK8TypeVect5xmeetEPK4Type(ptr noundef nonnull readonly align 8 dereferenceable(36) %0, ptr noundef readonly %1) unnamed_addr #0 align 2 {
  %3 = icmp eq ptr %0, %1
  br i1 %3, label %34, label %4

4:                                                ; preds = %2
  %5 = getelementptr inbounds i8, ptr %1, i64 16
  %6 = load i32, ptr %5, align 8
  switch i32 %6, label %7 [
    i32 37, label %34
    i32 11, label %9
    i32 12, label %21
    i32 13, label %21
    i32 14, label %21
    i32 15, label %21
    i32 16, label %21
    i32 17, label %21
    i32 2, label %33
  ]

7:                                                ; preds = %4
  %8 = load ptr, ptr @g_assert_poison, align 8
  store i8 88, ptr %8, align 1
  tail call void @_Z28report_should_not_reach_herePKci(ptr noundef nonnull @.str.42, i32 noundef 1290) #18
  unreachable

9:                                                ; preds = %4
  %10 = getelementptr inbounds i8, ptr %0, i64 24
  %11 = load ptr, ptr %10, align 8
  %12 = getelementptr inbounds i8, ptr %1, i64 24
  %13 = load ptr, ptr %12, align 8
  %14 = load ptr, ptr %11, align 8
  %15 = getelementptr inbounds i8, ptr %14, i64 32
  %16 = load ptr, ptr %15, align 8
  %17 = tail call noundef ptr %16(ptr noundef nonnull align 8 dereferenceable(20) %11, ptr noundef %13) #17
  %18 = getelementptr inbounds i8, ptr %0, i64 32
  %19 = load i32, ptr %18, align 8
  %20 = tail call noundef ptr @_ZN8TypeVect8makemaskEPK4Typej(ptr noundef %17, i32 noundef %19)
  br label %34

21:                                               ; preds = %4, %4, %4, %4, %4, %4
  %22 = getelementptr inbounds i8, ptr %0, i64 24
  %23 = load ptr, ptr %22, align 8
  %24 = getelementptr inbounds i8, ptr %1, i64 24
  %25 = load ptr, ptr %24, align 8
  %26 = load ptr, ptr %23, align 8
  %27 = getelementptr inbounds i8, ptr %26, i64 32
  %28 = load ptr, ptr %27, align 8
  %29 = tail call noundef ptr %28(ptr noundef nonnull align 8 dereferenceable(20) %23, ptr noundef %25) #17
  %30 = getelementptr inbounds i8, ptr %0, i64 32
  %31 = load i32, ptr %30, align 8
  %32 = tail call noundef ptr @_ZN8TypeVect4makeEPK4Typejb(ptr noundef %29, i32 noundef %31, i1 noundef zeroext false)
  br label %34

33:                                               ; preds = %4
  br label %34

34:                                               ; preds = %4, %2, %33, %21, %9
  %.0 = phi ptr [ %20, %9 ], [ %0, %33 ], [ %32, %21 ], [ %0, %2 ], [ %1, %4 ]
  ret ptr %.0
}